target datalayout = "e-m:e-p270:32:32-p271:32:32-p272:64:64-i64:64-i128:128-f80:128-n8:16:32:64-S128"
target triple = "x86_64-pc-linux-gnu"

%struct.archive_write = type { %struct.archive, i32, i64, i64, ptr, i64, ptr, ptr, ptr, ptr, ptr, i32, i32, ptr, ptr, ptr, ptr, ptr, ptr, ptr, ptr, ptr, ptr, ptr, ptr, ptr, ptr }
%struct.archive = type { i32, i32, ptr, i32, ptr, i32, i32, ptr, %struct.archive_string, ptr, i32, i32, ptr, ptr, i64, i64, i64, i8, i64 }
%struct.archive_string = type { ptr, i64, i64 }
%struct.cpio = type { i64, i64, ptr, i64, i64, ptr, ptr, i32 }

@.str.4 = private unnamed_addr constant [11 x i8] c"hdrcharset\00", align 1
@.str.5 = private unnamed_addr constant [49 x i8] c"%s: hdrcharset option needs a character-set name\00", align 1

; Function Attrs: nounwind uwtable
define internal i32 @archive_write_odc_options(ptr noundef %0, ptr noundef %1, ptr noundef %2) #0 {
  %4 = alloca i32, align 4
  %5 = alloca ptr, align 8
  %6 = alloca ptr, align 8
  %7 = alloca ptr, align 8
  %8 = alloca ptr, align 8
  %9 = alloca i32, align 4
  %10 = alloca i32, align 4
  store ptr %0, ptr %5, align 8, !tbaa !9
  store ptr %1, ptr %6, align 8, !tbaa !33
  store ptr %2, ptr %7, align 8, !tbaa !33
  call void @llvm.lifetime.start.p0(i64 8, ptr %8) #9
  %11 = load ptr, ptr %5, align 8, !tbaa !9
  %12 = getelementptr inbounds nuw %struct.archive_write, ptr %11, i32 0, i32 15
  %13 = load ptr, ptr %12, align 8, !tbaa !24
  store ptr %13, ptr %8, align 8, !tbaa !22
  call void @llvm.lifetime.start.p0(i64 4, ptr %9) #9
  store i32 -25, ptr %9, align 4, !tbaa !11
  %14 = load ptr, ptr %6, align 8, !tbaa !33
  %15 = call i32 @strcmp(ptr noundef %14, ptr noundef @.str.4) #11
  %16 = icmp eq i32 %15, 0
  br i1 %16, label %17, label %48

17:                                               ; preds = %3
  %18 = load ptr, ptr %7, align 8, !tbaa !33
  %19 = icmp eq ptr %18, null
  br i1 %19, label %26, label %20

20:                                               ; preds = %17
  %21 = load ptr, ptr %7, align 8, !tbaa !33
  %22 = getelementptr inbounds i8, ptr %21, i64 0
  %23 = load i8, ptr %22, align 1, !tbaa !34
  %24 = sext i8 %23 to i32
  %25 = icmp eq i32 %24, 0
  br i1 %25, label %26, label %32

26:                                               ; preds = %20, %17
  %27 = load ptr, ptr %5, align 8, !tbaa !9
  %28 = getelementptr inbounds nuw %struct.archive_write, ptr %27, i32 0, i32 0
  %29 = load ptr, ptr %5, align 8, !tbaa !9
  %30 = getelementptr inbounds nuw %struct.archive_write, ptr %29, i32 0, i32 16
  %31 = load ptr, ptr %30, align 8, !tbaa !25
  call void (ptr, i32, ptr, ...) @archive_set_error(ptr noundef %28, i32 noundef -1, ptr noundef @.str.5, ptr noundef %31)
  br label %46

32:                                               ; preds = %20
  %33 = load ptr, ptr %5, align 8, !tbaa !9
  %34 = getelementptr inbounds nuw %struct.archive_write, ptr %33, i32 0, i32 0
  %35 = load ptr, ptr %7, align 8, !tbaa !33
  %36 = call ptr @archive_string_conversion_to_charset(ptr noundef %34, ptr noundef %35, i32 noundef 0)
  %37 = load ptr, ptr %8, align 8, !tbaa !22
  %38 = getelementptr inbounds nuw %struct.cpio, ptr %37, i32 0, i32 5
  store ptr %36, ptr %38, align 8, !tbaa !35
  %39 = load ptr, ptr %8, align 8, !tbaa !22
  %40 = getelementptr inbounds nuw %struct.cpio, ptr %39, i32 0, i32 5
  %41 = load ptr, ptr %40, align 8, !tbaa !35
  %42 = icmp ne ptr %41, null
  br i1 %42, label %43, label %44

43:                                               ; preds = %32
  store i32 0, ptr %9, align 4, !tbaa !11
  br label %45

44:                                               ; preds = %32
  store i32 -30, ptr %9, align 4, !tbaa !11
  br label %45

45:                                               ; preds = %44, %43
  br label %46

46:                                               ; preds = %45, %26
  %47 = load i32, ptr %9, align 4, !tbaa !11
  store i32 %47, ptr %4, align 4
  store i32 1, ptr %10, align 4
  br label %49

48:                                               ; preds = %3
  store i32 -20, ptr %4, align 4
  store i32 1, ptr %10, align 4
  br label %49

49:                                               ; preds = %48, %46
  call void @llvm.lifetime.end.p0(i64 4, ptr %9) #9
  call void @llvm.lifetime.end.p0(i64 8, ptr %8) #9
  %50 = load i32, ptr %4, align 4
  ret i32 %50
}